; Function Attrs: mustprogress uwtable
define void @_ZNK6casadi9Sqpmethod8set_workEPvRPPKdRPPdRPxRS6_(ptr noundef nonnull align 8 dereferenceable(2386) %0, ptr noundef %1, ptr noundef nonnull align 8 dereferenceable(8) %2, ptr noundef nonnull align 8 dereferenceable(8) %3, ptr noundef nonnull align 8 dereferenceable(8) %4, ptr noundef nonnull align 8 dereferenceable(8) %5) unnamed_addr #4 align 2 {
  tail call void @_ZNK6casadi6Nlpsol8set_workEPvRPPKdRPPdRPxRS6_(ptr noundef nonnull align 8 dereferenceable(1976) %0, ptr noundef %1, ptr noundef nonnull align 8 dereferenceable(8) %2, ptr noundef nonnull align 8 dereferenceable(8) %3, ptr noundef nonnull align 8 dereferenceable(8) %4, ptr noundef nonnull align 8 dereferenceable(8) %5)
  %7 = getelementptr inbounds nuw i8, ptr %0, i64 1976
  %8 = getelementptr inbounds nuw i8, ptr %1, i64 416
  store ptr %7, ptr %8, align 8, !tbaa !218
  %9 = getelementptr inbounds nuw i8, ptr %0, i64 2104
  %10 = load i8, ptr %9, align 8, !tbaa !151, !range !157, !noundef !177
  %11 = zext nneg i8 %10 to i32
  %12 = getelementptr inbounds nuw i8, ptr %0, i64 2385
  %13 = load i8, ptr %12, align 1, !tbaa !155, !range !157, !noundef !177
  %14 = zext nneg i8 %13 to i32
  tail call void @_ZN6casadi21casadi_sqpmethod_initIdEEvPNS_21casadi_sqpmethod_dataIT_EEPPPKS2_PPPS2_PPxSA_ii(ptr noundef nonnull %8, ptr noundef nonnull %2, ptr noundef nonnull %3, ptr noundef nonnull %4, ptr noundef nonnull %5, i32 noundef %11, i32 noundef %14)
  %15 = getelementptr inbounds nuw i8, ptr %1, i64 600
  store i32 -1, ptr %15, align 8, !tbaa !241
  ret void
}